target datalayout = "e-m:e-p270:32:32-p271:32:32-p272:64:64-i64:64-i128:128-f80:128-n8:16:32:64-S128"
target triple = "x86_64-pc-linux-gnu"

%"class.boost::urls::params_encoded_base::iterator" = type { %"struct.boost::urls::detail::params_iter_impl" }
%"struct.boost::urls::detail::params_iter_impl" = type { [8 x i8], %"class.boost::urls::detail::query_ref", i64, i64, i64, i64, i64, i64 }
%"class.boost::urls::detail::query_ref" = type <{ ptr, ptr, i64, i64, i64, i8, [7 x i8] }>
%"class.boost::urls::params_encoded_base" = type { %"class.boost::urls::detail::query_ref" }
%"class.boost::urls::pct_string_view" = type { %"class.boost::urls::grammar::string_view_base", i64 }
%"class.boost::urls::grammar::string_view_base" = type { %"class.boost::core::basic_string_view" }
%"class.boost::core::basic_string_view" = type { ptr, i64 }
%"class.boost::urls::ignore_case_param" = type { i8 }

@_ZN5boost4urls19params_encoded_base8iteratorC1ERKNS0_6detail9query_refE = unnamed_addr alias void (ptr, ptr), ptr @_ZN5boost4urls19params_encoded_base8iteratorC2ERKNS0_6detail9query_refE
@_ZN5boost4urls19params_encoded_base8iteratorC1ERKNS0_6detail9query_refEi = unnamed_addr alias void (ptr, ptr, i32), ptr @_ZN5boost4urls19params_encoded_base8iteratorC2ERKNS0_6detail9query_refEi

; Function Attrs: mustprogress nounwind uwtable
define linkonce_odr hidden noundef zeroext i1 @_ZNK5boost4urls6detail16params_iter_impl5equalERKS2_(ptr noundef nonnull align 8 dereferenceable(104) %0, ptr noundef nonnull align 8 dereferenceable(104) %1) #2 comdat align 2 {
  %3 = alloca ptr, align 8
  %4 = alloca ptr, align 8
  store ptr %0, ptr %3, align 8, !tbaa !3
  store ptr %1, ptr %4, align 8, !tbaa !3
  %5 = load ptr, ptr %3, align 8
  %6 = getelementptr inbounds nuw %"struct.boost::urls::detail::params_iter_impl", ptr %5, i32 0, i32 2
  %7 = load i64, ptr %6, align 8, !tbaa !22
  %8 = load ptr, ptr %4, align 8, !tbaa !3
  %9 = getelementptr inbounds nuw %"struct.boost::urls::detail::params_iter_impl", ptr %8, i32 0, i32 2
  %10 = load i64, ptr %9, align 8, !tbaa !22
  %11 = icmp eq i64 %7, %10
  ret i1 %11
}

; Function Attrs: noinline noreturn nounwind uwtable
define linkonce_odr hidden void @__clang_call_terminate(ptr noundef %0) #0 comdat {
  %2 = call ptr @__cxa_begin_catch(ptr %0) #14
  call void @_ZSt9terminatev() #15
  unreachable
}

; Function Attrs: mustprogress nounwind uwtable
define linkonce_odr hidden void @_ZN5boost4urls19params_encoded_base8iteratorC2ERKNS0_6detail16params_iter_implE(ptr noundef nonnull align 8 dereferenceable(104) %0, ptr noundef nonnull align 8 dereferenceable(104) %1) unnamed_addr #2 comdat align 2 {
  %3 = alloca ptr, align 8
  %4 = alloca ptr, align 8
  store ptr %0, ptr %3, align 8, !tbaa !3
  store ptr %1, ptr %4, align 8, !tbaa !3
  %5 = load ptr, ptr %3, align 8
  %6 = getelementptr inbounds nuw %"class.boost::urls::params_encoded_base::iterator", ptr %5, i32 0, i32 0
  %7 = load ptr, ptr %4, align 8, !tbaa !3
  call void @llvm.memcpy.p0.p0.i64(ptr align 8 %6, ptr align 8 %7, i64 104, i1 false)
  ret void
}

; Function Attrs: mustprogress nounwind uwtable
define void @_ZNK5boost4urls19params_encoded_base5beginEv(ptr dead_on_unwind noalias writable sret(%"class.boost::urls::params_encoded_base::iterator") align 8 %0, ptr noundef nonnull align 8 dereferenceable(48) %1) #2 align 2 {
  %3 = alloca ptr, align 8
  store ptr %1, ptr %3, align 8, !tbaa !3
  %4 = load ptr, ptr %3, align 8
  %5 = getelementptr inbounds nuw %"class.boost::urls::params_encoded_base", ptr %4, i32 0, i32 0
  call void @_ZN5boost4urls19params_encoded_base8iteratorC1ERKNS0_6detail9query_refE(ptr noundef nonnull align 8 dereferenceable(104) %0, ptr noundef nonnull align 8 dereferenceable(41) %5) #14
  ret void
}

; Function Attrs: inlinehint mustprogress nounwind uwtable
define linkonce_odr hidden void @_ZNK5boost4urls19params_encoded_base4findENS1_8iteratorENS0_15pct_string_viewENS0_17ignore_case_paramE(ptr dead_on_unwind noalias writable sret(%"class.boost::urls::params_encoded_base::iterator") align 8 %0, ptr noundef nonnull align 8 dereferenceable(48) %1, ptr noundef byval(%"class.boost::urls::params_encoded_base::iterator") align 8 %2, ptr noundef byval(%"class.boost::urls::pct_string_view") align 8 %3, i8 %4) #5 comdat align 2 personality ptr @__gxx_personality_v0 {
  %6 = alloca %"class.boost::urls::ignore_case_param", align 1
  %7 = alloca ptr, align 8
  %8 = alloca %"struct.boost::urls::detail::params_iter_impl", align 8
  %9 = alloca %"struct.boost::urls::detail::params_iter_impl", align 8
  %10 = alloca %"class.boost::urls::pct_string_view", align 8
  %11 = alloca %"class.boost::urls::ignore_case_param", align 1
  %12 = getelementptr inbounds nuw %"class.boost::urls::ignore_case_param", ptr %6, i32 0, i32 0
  store i8 %4, ptr %12, align 1
  store ptr %1, ptr %7, align 8, !tbaa !3
  %13 = load ptr, ptr %7, align 8
  call void @llvm.lifetime.start.p0(i64 104, ptr %8) #14
  %14 = getelementptr inbounds nuw %"class.boost::urls::params_encoded_base::iterator", ptr %2, i32 0, i32 0
  call void @llvm.memcpy.p0.p0.i64(ptr align 8 %9, ptr align 8 %14, i64 104, i1 false)
  call void @llvm.memcpy.p0.p0.i64(ptr align 8 %10, ptr align 8 %3, i64 24, i1 false)
  call void @llvm.memcpy.p0.p0.i64(ptr align 1 %11, ptr align 1 %6, i64 1, i1 false), !tbaa.struct !11
  %15 = getelementptr inbounds nuw %"class.boost::urls::ignore_case_param", ptr %11, i32 0, i32 0
  %16 = load i8, ptr %15, align 1
  call void @_ZNK5boost4urls19params_encoded_base9find_implENS0_6detail16params_iter_implENS0_15pct_string_viewENS0_17ignore_case_paramE(ptr dead_on_unwind writable sret(%"struct.boost::urls::detail::params_iter_impl") align 8 %8, ptr noundef nonnull align 8 dereferenceable(48) %13, ptr noundef byval(%"struct.boost::urls::detail::params_iter_impl") align 8 %9, ptr noundef byval(%"class.boost::urls::pct_string_view") align 8 %10, i8 %16) #14
  invoke void @_ZN5boost4urls19params_encoded_base8iteratorC2ERKNS0_6detail16params_iter_implE(ptr noundef nonnull align 8 dereferenceable(104) %0, ptr noundef nonnull align 8 dereferenceable(104) %8)
          to label %17 unwind label %18

17:                                               ; preds = %5
  call void @llvm.lifetime.end.p0(i64 104, ptr %8) #14
  ret void

18:                                               ; preds = %5
  %19 = landingpad { ptr, i32 }
          catch ptr null
  %20 = extractvalue { ptr, i32 } %19, 0
  call void @__clang_call_terminate(ptr %20) #15
  unreachable
}

; Function Attrs: mustprogress nounwind uwtable
define linkonce_odr hidden noundef nonnull align 8 dereferenceable(104) ptr @_ZN5boost4urls19params_encoded_base8iteratorppEv(ptr noundef nonnull align 8 dereferenceable(104) %0) #2 comdat align 2 {
  %2 = alloca ptr, align 8
  store ptr %0, ptr %2, align 8, !tbaa !3
  %3 = load ptr, ptr %2, align 8
  %4 = getelementptr inbounds nuw %"class.boost::urls::params_encoded_base::iterator", ptr %3, i32 0, i32 0
  call void @_ZN5boost4urls6detail16params_iter_impl9incrementEv(ptr noundef nonnull align 8 dereferenceable(104) %4) #14
  ret ptr %3
}

; Function Attrs: mustprogress nounwind uwtable
define linkonce_odr hidden noundef zeroext i1 @_ZN5boost4urlsneERKNS0_19params_encoded_base8iteratorES4_(ptr noundef nonnull align 8 dereferenceable(104) %0, ptr noundef nonnull align 8 dereferenceable(104) %1) #2 comdat {
  %3 = alloca ptr, align 8
  %4 = alloca ptr, align 8
  store ptr %0, ptr %3, align 8, !tbaa !3
  store ptr %1, ptr %4, align 8, !tbaa !3
  %5 = load ptr, ptr %3, align 8, !tbaa !3
  %6 = getelementptr inbounds nuw %"class.boost::urls::params_encoded_base::iterator", ptr %5, i32 0, i32 0
  %7 = load ptr, ptr %4, align 8, !tbaa !3
  %8 = getelementptr inbounds nuw %"class.boost::urls::params_encoded_base::iterator", ptr %7, i32 0, i32 0
  %9 = call noundef zeroext i1 @_ZNK5boost4urls6detail16params_iter_impl5equalERKS2_(ptr noundef nonnull align 8 dereferenceable(104) %6, ptr noundef nonnull align 8 dereferenceable(104) %8) #14
  %10 = xor i1 %9, true
  ret i1 %10
}

; Function Attrs: mustprogress nounwind uwtable
define void @_ZNK5boost4urls19params_encoded_base3endEv(ptr dead_on_unwind noalias writable sret(%"class.boost::urls::params_encoded_base::iterator") align 8 %0, ptr noundef nonnull align 8 dereferenceable(48) %1) #2 align 2 {
  %3 = alloca ptr, align 8
  store ptr %1, ptr %3, align 8, !tbaa !3
  %4 = load ptr, ptr %3, align 8
  %5 = getelementptr inbounds nuw %"class.boost::urls::params_encoded_base", ptr %4, i32 0, i32 0
  call void @_ZN5boost4urls19params_encoded_base8iteratorC1ERKNS0_6detail9query_refEi(ptr noundef nonnull align 8 dereferenceable(104) %0, ptr noundef nonnull align 8 dereferenceable(41) %5, i32 noundef 0) #14
  ret void
}

; Function Attrs: inlinehint mustprogress nounwind uwtable
define linkonce_odr hidden void @_ZNK5boost4urls19params_encoded_base4findENS0_15pct_string_viewENS0_17ignore_case_paramE(ptr dead_on_unwind noalias writable sret(%"class.boost::urls::params_encoded_base::iterator") align 8 %0, ptr noundef nonnull align 8 dereferenceable(48) %1, ptr noundef byval(%"class.boost::urls::pct_string_view") align 8 %2, i8 %3) #5 comdat align 2 personality ptr @__gxx_personality_v0 {
  %5 = alloca %"class.boost::urls::ignore_case_param", align 1
  %6 = alloca ptr, align 8
  %7 = alloca %"struct.boost::urls::detail::params_iter_impl", align 8
  %8 = alloca %"struct.boost::urls::detail::params_iter_impl", align 8
  %9 = alloca %"class.boost::urls::params_encoded_base::iterator", align 8
  %10 = alloca %"class.boost::urls::pct_string_view", align 8
  %11 = alloca %"class.boost::urls::ignore_case_param", align 1
  %12 = getelementptr inbounds nuw %"class.boost::urls::ignore_case_param", ptr %5, i32 0, i32 0
  store i8 %3, ptr %12, align 1
  store ptr %1, ptr %6, align 8, !tbaa !3
  %13 = load ptr, ptr %6, align 8
  call void @llvm.lifetime.start.p0(i64 104, ptr %7) #14
  call void @llvm.lifetime.start.p0(i64 104, ptr %9) #14
  call void @_ZNK5boost4urls19params_encoded_base5beginEv(ptr dead_on_unwind writable sret(%"class.boost::urls::params_encoded_base::iterator") align 8 %9, ptr noundef nonnull align 8 dereferenceable(48) %13) #14
  %14 = getelementptr inbounds nuw %"class.boost::urls::params_encoded_base::iterator", ptr %9, i32 0, i32 0
  call void @llvm.memcpy.p0.p0.i64(ptr align 8 %8, ptr align 8 %14, i64 104, i1 false)
  call void @llvm.memcpy.p0.p0.i64(ptr align 8 %10, ptr align 8 %2, i64 24, i1 false)
  call void @llvm.memcpy.p0.p0.i64(ptr align 1 %11, ptr align 1 %5, i64 1, i1 false), !tbaa.struct !11
  %15 = getelementptr inbounds nuw %"class.boost::urls::ignore_case_param", ptr %11, i32 0, i32 0
  %16 = load i8, ptr %15, align 1
  call void @_ZNK5boost4urls19params_encoded_base9find_implENS0_6detail16params_iter_implENS0_15pct_string_viewENS0_17ignore_case_paramE(ptr dead_on_unwind writable sret(%"struct.boost::urls::detail::params_iter_impl") align 8 %7, ptr noundef nonnull align 8 dereferenceable(48) %13, ptr noundef byval(%"struct.boost::urls::detail::params_iter_impl") align 8 %8, ptr noundef byval(%"class.boost::urls::pct_string_view") align 8 %10, i8 %16) #14
  invoke void @_ZN5boost4urls19params_encoded_base8iteratorC2ERKNS0_6detail16params_iter_implE(ptr noundef nonnull align 8 dereferenceable(104) %0, ptr noundef nonnull align 8 dereferenceable(104) %7)
          to label %17 unwind label %18

17:                                               ; preds = %4
  call void @llvm.lifetime.end.p0(i64 104, ptr %9) #14
  call void @llvm.lifetime.end.p0(i64 104, ptr %7) #14
  ret void

18:                                               ; preds = %4
  %19 = landingpad { ptr, i32 }
          catch ptr null
  %20 = extractvalue { ptr, i32 } %19, 0
  call void @__clang_call_terminate(ptr %20) #15
  unreachable
}

; Function Attrs: mustprogress nounwind uwtable
define noundef i64 @_ZNK5boost4urls19params_encoded_base5countENS0_15pct_string_viewENS0_17ignore_case_paramE(ptr noundef nonnull align 8 dereferenceable(48) %0, ptr noundef byval(%"class.boost::urls::pct_string_view") align 8 %1, i8 %2) #2 align 2 {
  %4 = alloca %"class.boost::urls::ignore_case_param", align 1
  %5 = alloca ptr, align 8
  %6 = alloca i64, align 8
  %7 = alloca %"class.boost::urls::params_encoded_base::iterator", align 8
  %8 = alloca %"class.boost::urls::pct_string_view", align 8
  %9 = alloca %"class.boost::urls::ignore_case_param", align 1
  %10 = alloca %"class.boost::urls::params_encoded_base::iterator", align 8
  %11 = alloca %"class.boost::urls::params_encoded_base::iterator", align 8
  %12 = alloca %"class.boost::urls::params_encoded_base::iterator", align 8
  %13 = alloca %"class.boost::urls::pct_string_view", align 8
  %14 = alloca %"class.boost::urls::ignore_case_param", align 1
  %15 = getelementptr inbounds nuw %"class.boost::urls::ignore_case_param", ptr %4, i32 0, i32 0
  store i8 %2, ptr %15, align 1
  store ptr %0, ptr %5, align 8, !tbaa !3
  %16 = load ptr, ptr %5, align 8
  call void @llvm.lifetime.start.p0(i64 8, ptr %6) #14
  store i64 0, ptr %6, align 8, !tbaa !9
  call void @llvm.lifetime.start.p0(i64 104, ptr %7) #14
  call void @llvm.memcpy.p0.p0.i64(ptr align 8 %8, ptr align 8 %1, i64 24, i1 false)
  call void @llvm.memcpy.p0.p0.i64(ptr align 1 %9, ptr align 1 %4, i64 1, i1 false), !tbaa.struct !11
  %17 = getelementptr inbounds nuw %"class.boost::urls::ignore_case_param", ptr %9, i32 0, i32 0
  %18 = load i8, ptr %17, align 1
  call void @_ZNK5boost4urls19params_encoded_base4findENS0_15pct_string_viewENS0_17ignore_case_paramE(ptr dead_on_unwind writable sret(%"class.boost::urls::params_encoded_base::iterator") align 8 %7, ptr noundef nonnull align 8 dereferenceable(48) %16, ptr noundef byval(%"class.boost::urls::pct_string_view") align 8 %8, i8 %18) #14
  call void @llvm.lifetime.start.p0(i64 104, ptr %10) #14
  call void @_ZNK5boost4urls19params_encoded_base3endEv(ptr dead_on_unwind writable sret(%"class.boost::urls::params_encoded_base::iterator") align 8 %10, ptr noundef nonnull align 8 dereferenceable(48) %16) #14
  br label %19

19:                                               ; preds = %21, %3
  %20 = call noundef zeroext i1 @_ZN5boost4urlsneERKNS0_19params_encoded_base8iteratorES4_(ptr noundef nonnull align 8 dereferenceable(104) %7, ptr noundef nonnull align 8 dereferenceable(104) %10) #14
  br i1 %20, label %21, label %27

21:                                               ; preds = %19
  %22 = load i64, ptr %6, align 8, !tbaa !9
  %23 = add i64 %22, 1
  store i64 %23, ptr %6, align 8, !tbaa !9
  %24 = call noundef nonnull align 8 dereferenceable(104) ptr @_ZN5boost4urls19params_encoded_base8iteratorppEv(ptr noundef nonnull align 8 dereferenceable(104) %7) #14
  call void @llvm.lifetime.start.p0(i64 104, ptr %11) #14
  call void @llvm.memcpy.p0.p0.i64(ptr align 8 %12, ptr align 8 %7, i64 104, i1 false)
  call void @llvm.memcpy.p0.p0.i64(ptr align 8 %13, ptr align 8 %1, i64 24, i1 false)
  call void @llvm.memcpy.p0.p0.i64(ptr align 1 %14, ptr align 1 %4, i64 1, i1 false), !tbaa.struct !11
  %25 = getelementptr inbounds nuw %"class.boost::urls::ignore_case_param", ptr %14, i32 0, i32 0
  %26 = load i8, ptr %25, align 1
  call void @_ZNK5boost4urls19params_encoded_base4findENS1_8iteratorENS0_15pct_string_viewENS0_17ignore_case_paramE(ptr dead_on_unwind writable sret(%"class.boost::urls::params_encoded_base::iterator") align 8 %11, ptr noundef nonnull align 8 dereferenceable(48) %16, ptr noundef byval(%"class.boost::urls::params_encoded_base::iterator") align 8 %12, ptr noundef byval(%"class.boost::urls::pct_string_view") align 8 %13, i8 %26) #14
  call void @llvm.memcpy.p0.p0.i64(ptr align 8 %7, ptr align 8 %11, i64 104, i1 false)
  call void @llvm.lifetime.end.p0(i64 104, ptr %11) #14
  br label %19, !llvm.loop !14

27:                                               ; preds = %19
  %28 = load i64, ptr %6, align 8, !tbaa !9
  call void @llvm.lifetime.end.p0(i64 104, ptr %10) #14
  call void @llvm.lifetime.end.p0(i64 104, ptr %7) #14
  call void @llvm.lifetime.end.p0(i64 8, ptr %6) #14
  ret i64 %28
}