; Function Attrs: mustprogress nounwind uwtable
define noundef i64 @_ZNK5boost4urls19params_encoded_base5countENS0_15pct_string_viewENS0_17ignore_case_paramE(ptr noundef nonnull align 8 dereferenceable(48) %0, ptr nocapture noundef readonly byval(%"class.boost::urls::pct_string_view") align 8 %1, i8 %2) local_unnamed_addr #1 align 2 personality ptr @__gxx_personality_v0 {
  %4 = alloca %"class.boost::urls::params_encoded_base::iterator", align 8
  %5 = alloca %"class.boost::urls::params_encoded_base::iterator", align 8
  %6 = alloca %"class.boost::urls::params_encoded_base::iterator", align 8
  %7 = alloca %"class.boost::urls::params_encoded_base::iterator", align 8
  call void @llvm.lifetime.start.p0(i64 104, ptr nonnull %5) #8
  call void @llvm.lifetime.start.p0(i64 104, ptr nonnull %4) #8, !noalias !3
  call void @_ZN5boost4urls19params_encoded_base8iteratorC1ERKNS0_6detail9query_refE(ptr noundef nonnull align 8 dereferenceable(104) %4, ptr noundef nonnull align 8 dereferenceable(48) %0) #8, !noalias !3
  call void @_ZNK5boost4urls19params_encoded_base9find_implENS0_6detail16params_iter_implENS0_15pct_string_viewENS0_17ignore_case_paramE(ptr dead_on_unwind nonnull writable sret(%"struct.boost::urls::detail::params_iter_impl") align 8 %5, ptr noundef nonnull align 8 dereferenceable(48) %0, ptr noundef nonnull byval(%"struct.boost::urls::detail::params_iter_impl") align 8 %4, ptr noundef nonnull byval(%"class.boost::urls::pct_string_view") align 8 %1, i8 %2) #8
  call void @llvm.lifetime.end.p0(i64 104, ptr nonnull %4) #8, !noalias !3
  call void @llvm.lifetime.start.p0(i64 104, ptr nonnull %6) #8
  call void @_ZN5boost4urls19params_encoded_base8iteratorC1ERKNS0_6detail9query_refEi(ptr noundef nonnull align 8 dereferenceable(104) %6, ptr noundef nonnull align 8 dereferenceable(48) %0, i32 noundef 0) #8
  %8 = getelementptr inbounds nuw i8, ptr %5, i64 56
  %9 = getelementptr inbounds nuw i8, ptr %6, i64 56
  %10 = load i64, ptr %8, align 8, !tbaa !6
  %11 = load i64, ptr %9, align 8, !tbaa !6
  %.not5 = icmp eq i64 %10, %11
  br i1 %.not5, label %._crit_edge, label %.lr.ph

.lr.ph:                                           ; preds = %3, %.lr.ph
  %.06 = phi i64 [ %12, %.lr.ph ], [ 0, %3 ]
  %12 = add i64 %.06, 1
  call void @_ZN5boost4urls6detail16params_iter_impl9incrementEv(ptr noundef nonnull align 8 dereferenceable(104) %5) #8
  call void @llvm.lifetime.start.p0(i64 104, ptr nonnull %7) #8
  call void @_ZNK5boost4urls19params_encoded_base9find_implENS0_6detail16params_iter_implENS0_15pct_string_viewENS0_17ignore_case_paramE(ptr dead_on_unwind nonnull writable sret(%"struct.boost::urls::detail::params_iter_impl") align 8 %7, ptr noundef nonnull align 8 dereferenceable(48) %0, ptr noundef nonnull byval(%"struct.boost::urls::detail::params_iter_impl") align 8 %5, ptr noundef nonnull byval(%"class.boost::urls::pct_string_view") align 8 %1, i8 %2) #8
  call void @llvm.memcpy.p0.p0.i64(ptr noundef nonnull align 8 dereferenceable(104) %5, ptr noundef nonnull align 8 dereferenceable(104) %7, i64 104, i1 false)
  call void @llvm.lifetime.end.p0(i64 104, ptr nonnull %7) #8
  %13 = load i64, ptr %8, align 8, !tbaa !6
  %14 = load i64, ptr %9, align 8, !tbaa !6
  %.not = icmp eq i64 %13, %14
  br i1 %.not, label %._crit_edge, label %.lr.ph, !llvm.loop !14

._crit_edge:                                      ; preds = %.lr.ph, %3
  %.0.lcssa = phi i64 [ 0, %3 ], [ %12, %.lr.ph ]
  call void @llvm.lifetime.end.p0(i64 104, ptr nonnull %6) #8
  call void @llvm.lifetime.end.p0(i64 104, ptr nonnull %5) #8
  ret i64 %.0.lcssa
}